target datalayout = "e-m:e-p270:32:32-p271:32:32-p272:64:64-i64:64-i128:128-f80:128-n8:16:32:64-S128"
target triple = "x86_64-pc-linux-gnu"

%struct.lzma_stream = type { ptr, i64, i64, ptr, i64, i64, ptr, ptr, ptr, ptr, ptr, ptr, i64, i64, i64, i64, i32, i32 }
%struct.archive_write_filter = type { i64, ptr, ptr, ptr, ptr, ptr, ptr, ptr, ptr, ptr, ptr, i32, i32, i32, i32 }
%struct.private_data = type { i32, i32, %struct.lzma_stream, [2 x %struct.lzma_filter], %struct.lzma_options_lzma, i64, ptr, i64, i64, i32 }
%struct.lzma_filter = type { i64, ptr }
%struct.lzma_options_lzma = type { i32, ptr, i32, i32, i32, i32, i32, i32, i32, i32, i32, i32, i32, i32, i32, i32, i32, i32, i32, i32, i32, i32, ptr, ptr }

@.str.9 = private unnamed_addr constant [28 x i8] c"lzma compression data error\00", align 1
@.str.10 = private unnamed_addr constant [55 x i8] c"lzma compression error: %ju MiB would have been needed\00", align 1
@.str.11 = private unnamed_addr constant [61 x i8] c"lzma compression failed: lzma_code() call returned status %d\00", align 1

; Function Attrs: nounwind uwtable
define internal i32 @drive_compressor(ptr noundef %0, ptr noundef %1, i32 noundef %2) #0 {
  %4 = alloca i32, align 4
  %5 = alloca ptr, align 8
  %6 = alloca ptr, align 8
  %7 = alloca i32, align 4
  %8 = alloca i32, align 4
  %9 = alloca i32, align 4
  store ptr %0, ptr %5, align 8, !tbaa !11
  store ptr %1, ptr %6, align 8, !tbaa !21
  store i32 %2, ptr %7, align 4, !tbaa !9
  call void @llvm.lifetime.start.p0(i64 4, ptr %8) #11
  br label %10

10:                                               ; preds = %102, %3
  %11 = load ptr, ptr %6, align 8, !tbaa !21
  %12 = getelementptr inbounds nuw %struct.private_data, ptr %11, i32 0, i32 2
  %13 = getelementptr inbounds nuw %struct.lzma_stream, ptr %12, i32 0, i32 4
  %14 = load i64, ptr %13, align 8, !tbaa !62
  %15 = icmp eq i64 %14, 0
  br i1 %15, label %16, label %50

16:                                               ; preds = %10
  %17 = load ptr, ptr %6, align 8, !tbaa !21
  %18 = getelementptr inbounds nuw %struct.private_data, ptr %17, i32 0, i32 7
  %19 = load i64, ptr %18, align 8, !tbaa !41
  %20 = load ptr, ptr %6, align 8, !tbaa !21
  %21 = getelementptr inbounds nuw %struct.private_data, ptr %20, i32 0, i32 8
  %22 = load i64, ptr %21, align 8, !tbaa !63
  %23 = add i64 %22, %19
  store i64 %23, ptr %21, align 8, !tbaa !63
  %24 = load ptr, ptr %5, align 8, !tbaa !11
  %25 = getelementptr inbounds nuw %struct.archive_write_filter, ptr %24, i32 0, i32 2
  %26 = load ptr, ptr %25, align 8, !tbaa !64
  %27 = load ptr, ptr %6, align 8, !tbaa !21
  %28 = getelementptr inbounds nuw %struct.private_data, ptr %27, i32 0, i32 6
  %29 = load ptr, ptr %28, align 8, !tbaa !34
  %30 = load ptr, ptr %6, align 8, !tbaa !21
  %31 = getelementptr inbounds nuw %struct.private_data, ptr %30, i32 0, i32 7
  %32 = load i64, ptr %31, align 8, !tbaa !41
  %33 = call i32 @__archive_write_filter(ptr noundef %26, ptr noundef %29, i64 noundef %32)
  store i32 %33, ptr %8, align 4, !tbaa !9
  %34 = load i32, ptr %8, align 4, !tbaa !9
  %35 = icmp ne i32 %34, 0
  br i1 %35, label %36, label %37

36:                                               ; preds = %16
  store i32 -30, ptr %4, align 4
  store i32 1, ptr %9, align 4
  br label %103

37:                                               ; preds = %16
  %38 = load ptr, ptr %6, align 8, !tbaa !21
  %39 = getelementptr inbounds nuw %struct.private_data, ptr %38, i32 0, i32 6
  %40 = load ptr, ptr %39, align 8, !tbaa !34
  %41 = load ptr, ptr %6, align 8, !tbaa !21
  %42 = getelementptr inbounds nuw %struct.private_data, ptr %41, i32 0, i32 2
  %43 = getelementptr inbounds nuw %struct.lzma_stream, ptr %42, i32 0, i32 3
  store ptr %40, ptr %43, align 8, !tbaa !74
  %44 = load ptr, ptr %6, align 8, !tbaa !21
  %45 = getelementptr inbounds nuw %struct.private_data, ptr %44, i32 0, i32 7
  %46 = load i64, ptr %45, align 8, !tbaa !41
  %47 = load ptr, ptr %6, align 8, !tbaa !21
  %48 = getelementptr inbounds nuw %struct.private_data, ptr %47, i32 0, i32 2
  %49 = getelementptr inbounds nuw %struct.lzma_stream, ptr %48, i32 0, i32 4
  store i64 %46, ptr %49, align 8, !tbaa !62
  br label %50

50:                                               ; preds = %37, %10
  %51 = load i32, ptr %7, align 4, !tbaa !9
  %52 = icmp ne i32 %51, 0
  br i1 %52, label %60, label %53

53:                                               ; preds = %50
  %54 = load ptr, ptr %6, align 8, !tbaa !21
  %55 = getelementptr inbounds nuw %struct.private_data, ptr %54, i32 0, i32 2
  %56 = getelementptr inbounds nuw %struct.lzma_stream, ptr %55, i32 0, i32 1
  %57 = load i64, ptr %56, align 8, !tbaa !71
  %58 = icmp eq i64 %57, 0
  br i1 %58, label %59, label %60

59:                                               ; preds = %53
  store i32 0, ptr %4, align 4
  store i32 1, ptr %9, align 4
  br label %103

60:                                               ; preds = %53, %50
  %61 = load ptr, ptr %6, align 8, !tbaa !21
  %62 = getelementptr inbounds nuw %struct.private_data, ptr %61, i32 0, i32 2
  %63 = load i32, ptr %7, align 4, !tbaa !9
  %64 = icmp ne i32 %63, 0
  %65 = select i1 %64, i32 3, i32 0
  %66 = call i32 @lzma_code(ptr noundef %62, i32 noundef %65) #11
  store i32 %66, ptr %8, align 4, !tbaa !9
  %67 = load i32, ptr %8, align 4, !tbaa !9
  switch i32 %67, label %97 [
    i32 0, label %68
    i32 1, label %79
    i32 6, label %87
  ]

68:                                               ; preds = %60
  %69 = load i32, ptr %7, align 4, !tbaa !9
  %70 = icmp ne i32 %69, 0
  br i1 %70, label %78, label %71

71:                                               ; preds = %68
  %72 = load ptr, ptr %6, align 8, !tbaa !21
  %73 = getelementptr inbounds nuw %struct.private_data, ptr %72, i32 0, i32 2
  %74 = getelementptr inbounds nuw %struct.lzma_stream, ptr %73, i32 0, i32 1
  %75 = load i64, ptr %74, align 8, !tbaa !71
  %76 = icmp eq i64 %75, 0
  br i1 %76, label %77, label %78

77:                                               ; preds = %71
  store i32 0, ptr %4, align 4
  store i32 1, ptr %9, align 4
  br label %103

78:                                               ; preds = %71, %68
  br label %102

79:                                               ; preds = %60
  %80 = load i32, ptr %7, align 4, !tbaa !9
  %81 = icmp ne i32 %80, 0
  br i1 %81, label %82, label %83

82:                                               ; preds = %79
  store i32 0, ptr %4, align 4
  store i32 1, ptr %9, align 4
  br label %103

83:                                               ; preds = %79
  %84 = load ptr, ptr %5, align 8, !tbaa !11
  %85 = getelementptr inbounds nuw %struct.archive_write_filter, ptr %84, i32 0, i32 1
  %86 = load ptr, ptr %85, align 8, !tbaa !18
  call void (ptr, i32, ptr, ...) @archive_set_error(ptr noundef %86, i32 noundef -1, ptr noundef @.str.9)
  store i32 -30, ptr %4, align 4
  store i32 1, ptr %9, align 4
  br label %103

87:                                               ; preds = %60
  %88 = load ptr, ptr %5, align 8, !tbaa !11
  %89 = getelementptr inbounds nuw %struct.archive_write_filter, ptr %88, i32 0, i32 1
  %90 = load ptr, ptr %89, align 8, !tbaa !18
  %91 = load ptr, ptr %6, align 8, !tbaa !21
  %92 = getelementptr inbounds nuw %struct.private_data, ptr %91, i32 0, i32 2
  %93 = call i64 @lzma_memusage(ptr noundef %92) #14
  %94 = add i64 %93, 1048576
  %95 = sub i64 %94, 1
  %96 = udiv i64 %95, 1048576
  call void (ptr, i32, ptr, ...) @archive_set_error(ptr noundef %90, i32 noundef 12, ptr noundef @.str.10, i64 noundef %96)
  store i32 -30, ptr %4, align 4
  store i32 1, ptr %9, align 4
  br label %103

97:                                               ; preds = %60
  %98 = load ptr, ptr %5, align 8, !tbaa !11
  %99 = getelementptr inbounds nuw %struct.archive_write_filter, ptr %98, i32 0, i32 1
  %100 = load ptr, ptr %99, align 8, !tbaa !18
  %101 = load i32, ptr %8, align 4, !tbaa !9
  call void (ptr, i32, ptr, ...) @archive_set_error(ptr noundef %100, i32 noundef -1, ptr noundef @.str.11, i32 noundef %101)
  store i32 -30, ptr %4, align 4
  store i32 1, ptr %9, align 4
  br label %103

102:                                              ; preds = %78
  br label %10

103:                                              ; preds = %97, %87, %83, %82, %77, %59, %36
  call void @llvm.lifetime.end.p0(i64 4, ptr %8) #11
  %104 = load i32, ptr %4, align 4
  ret i32 %104
}