; Function Attrs: nounwind uwtable
define internal fastcc range(i32 -30, 1) i32 @drive_compressor(ptr noundef readonly captures(none) %0, ptr noundef %1, i32 noundef range(i32 0, 2) %2) unnamed_addr #0 {
  %4 = getelementptr inbounds nuw i8, ptr %1, i64 8
  %5 = getelementptr inbounds nuw i8, ptr %1, i64 40
  %6 = getelementptr inbounds nuw i8, ptr %1, i64 304
  %7 = getelementptr inbounds nuw i8, ptr %1, i64 312
  %8 = getelementptr inbounds nuw i8, ptr %0, i64 16
  %9 = getelementptr inbounds nuw i8, ptr %1, i64 296
  %10 = getelementptr inbounds nuw i8, ptr %1, i64 32
  %.not24 = icmp eq i32 %2, 0
  %11 = getelementptr inbounds nuw i8, ptr %1, i64 16
  br i1 %.not24, label %.split.us, label %.split

.split.us:                                        ; preds = %3, %29
  %12 = load i64, ptr %5, align 8, !tbaa !53
  %13 = icmp eq i64 %12, 0
  br i1 %13, label %14, label %24

14:                                               ; preds = %.split.us
  %15 = load i64, ptr %6, align 8, !tbaa !33
  %16 = load i64, ptr %7, align 8, !tbaa !63
  %17 = add i64 %16, %15
  store i64 %17, ptr %7, align 8, !tbaa !63
  %18 = load ptr, ptr %8, align 8, !tbaa !64
  %19 = load ptr, ptr %9, align 8, !tbaa !27
  %20 = tail call i32 @__archive_write_filter(ptr noundef %18, ptr noundef %19, i64 noundef %15) #13
  %.not.us = icmp eq i32 %20, 0
  br i1 %.not.us, label %21, label %.split37.us

21:                                               ; preds = %14
  %22 = load ptr, ptr %9, align 8, !tbaa !27
  store ptr %22, ptr %10, align 8, !tbaa !52
  %23 = load i64, ptr %6, align 8, !tbaa !33
  store i64 %23, ptr %5, align 8, !tbaa !53
  br label %24

24:                                               ; preds = %21, %.split.us
  %25 = load i64, ptr %11, align 8, !tbaa !69
  %26 = icmp eq i64 %25, 0
  br i1 %26, label %.split37.us, label %27

27:                                               ; preds = %24
  %28 = tail call i32 @lzma_code(ptr noundef nonnull %4, i32 noundef 0) #13
  switch i32 %28, label %.split34.us [
    i32 0, label %29
    i32 1, label %.critedge
    i32 6, label %.split40.us
  ]

29:                                               ; preds = %27
  %30 = load i64, ptr %11, align 8, !tbaa !69
  %31 = icmp eq i64 %30, 0
  br i1 %31, label %.split37.us, label %.split.us

.split:                                           ; preds = %3, %44
  %32 = load i64, ptr %5, align 8, !tbaa !53
  %33 = icmp eq i64 %32, 0
  br i1 %33, label %34, label %44

34:                                               ; preds = %.split
  %35 = load i64, ptr %6, align 8, !tbaa !33
  %36 = load i64, ptr %7, align 8, !tbaa !63
  %37 = add i64 %36, %35
  store i64 %37, ptr %7, align 8, !tbaa !63
  %38 = load ptr, ptr %8, align 8, !tbaa !64
  %39 = load ptr, ptr %9, align 8, !tbaa !27
  %40 = tail call i32 @__archive_write_filter(ptr noundef %38, ptr noundef %39, i64 noundef %35) #13
  %.not = icmp eq i32 %40, 0
  br i1 %.not, label %41, label %.split37.us

41:                                               ; preds = %34
  %42 = load ptr, ptr %9, align 8, !tbaa !27
  store ptr %42, ptr %10, align 8, !tbaa !52
  %43 = load i64, ptr %6, align 8, !tbaa !33
  store i64 %43, ptr %5, align 8, !tbaa !53
  br label %44

44:                                               ; preds = %41, %.split
  %45 = tail call i32 @lzma_code(ptr noundef nonnull %4, i32 noundef 3) #13
  switch i32 %45, label %.split34.us [
    i32 0, label %.split
    i32 1, label %.split37.us
    i32 6, label %.split40.us
  ]

.critedge:                                        ; preds = %27
  %46 = getelementptr inbounds nuw i8, ptr %0, i64 8
  %47 = load ptr, ptr %46, align 8, !tbaa !4
  tail call void (ptr, i32, ptr, ...) @archive_set_error(ptr noundef %47, i32 noundef -1, ptr noundef nonnull @.str.9) #13
  br label %.split37.us

.split40.us:                                      ; preds = %44, %27
  %48 = getelementptr inbounds nuw i8, ptr %0, i64 8
  %49 = load ptr, ptr %48, align 8, !tbaa !4
  %50 = tail call i64 @lzma_memusage(ptr noundef nonnull %4) #16
  %51 = add i64 %50, 1048575
  %52 = lshr i64 %51, 20
  tail call void (ptr, i32, ptr, ...) @archive_set_error(ptr noundef %49, i32 noundef 12, ptr noundef nonnull @.str.10, i64 noundef %52) #13
  br label %.split37.us

.split34.us:                                      ; preds = %44, %27
  %.us-phi35 = phi i32 [ %28, %27 ], [ %45, %44 ]
  %53 = getelementptr inbounds nuw i8, ptr %0, i64 8
  %54 = load ptr, ptr %53, align 8, !tbaa !4
  tail call void (ptr, i32, ptr, ...) @archive_set_error(ptr noundef %54, i32 noundef -1, ptr noundef nonnull @.str.11, i32 noundef %.us-phi35) #13
  br label %.split37.us

.split37.us:                                      ; preds = %34, %44, %29, %24, %14, %.split34.us, %.split40.us, %.critedge
  %.0 = phi i32 [ -30, %.split34.us ], [ -30, %.split40.us ], [ -30, %.critedge ], [ 0, %29 ], [ 0, %24 ], [ -30, %14 ], [ 0, %44 ], [ -30, %34 ]
  ret i32 %.0
}